target datalayout = "e-m:e-p270:32:32-p271:32:32-p272:64:64-i64:64-i128:128-f80:128-n8:16:32:64-S128"
target triple = "x86_64-pc-linux-gnu"

%struct.Curl_cftype = type { ptr, i32, i32, ptr, ptr, ptr, ptr, ptr, ptr, ptr, ptr, ptr, ptr, ptr, ptr, ptr }
%struct.Curl_sockaddr_ex = type { i32, i32, i32, i32, %union.anon }
%union.anon = type { %struct.Curl_sockaddr_storage }
%struct.Curl_sockaddr_storage = type { %union.anon.0 }
%union.anon.0 = type { %struct.sockaddr_storage }
%struct.sockaddr_storage = type { i16, [118 x i8], i64 }
%struct.Curl_easy = type { i32, i64, i64, ptr, %struct.Curl_llist_node, %struct.Curl_llist_node, i32, i32, %struct.Curl_message, %struct.easy_pollset, %struct.Names, ptr, ptr, ptr, ptr, %struct.SingleRequest, %struct.UserDefined, ptr, ptr, ptr, %struct.Progress, %struct.UrlState, ptr, %struct.PureInfo, %struct.curl_tlssessioninfo }
%struct.Curl_llist_node = type { ptr, ptr, ptr, ptr }
%struct.Curl_message = type { %struct.Curl_llist_node, %struct.CURLMsg }
%struct.CURLMsg = type { i32, ptr, %union.anon.3 }
%union.anon.3 = type { ptr }
%struct.easy_pollset = type { [5 x i32], i32, [5 x i8] }
%struct.Names = type { ptr, i32 }
%struct.SingleRequest = type <{ i64, i64, i64, i64, %struct.curltime, i32, i32, i32, i32, i64, i32, i32, i8, i8, [2 x i8], i32, ptr, ptr, %struct.bufq, i64, i64, ptr, ptr, %union.anon.4, ptr, i8, i32, [3 x i8] }>
%struct.curltime = type { i64, i32 }
%struct.bufq = type { ptr, ptr, ptr, ptr, i64, i64, i64, i32 }
%union.anon.4 = type { ptr }
%struct.UserDefined = type <{ ptr, ptr, ptr, ptr, ptr, ptr, i64, i64, i64, ptr, ptr, i64, ptr, ptr, ptr, ptr, ptr, ptr, ptr, ptr, ptr, ptr, ptr, ptr, ptr, ptr, ptr, ptr, ptr, ptr, ptr, ptr, ptr, ptr, ptr, i64, i64, i64, i64, i64, i64, i64, i64, i64, ptr, ptr, %struct.curl_mimepart, ptr, ptr, ptr, i64, %struct.ssl_config_data, %struct.ssl_config_data, ptr, i16, i8, i8, %struct.ssl_general_config, i32, i32, i32, [4 x i8], ptr, ptr, i64, i32, i8, i8, i8, i8, ptr, ptr, ptr, i32, [4 x i8], [74 x ptr], [8 x ptr], i32, i32, i32, [4 x i8], ptr, i32, [4 x i8], ptr, ptr, ptr, ptr, ptr, i32, i32, i32, i32, i32, i32, i32, i32, i64, ptr, ptr, i64, ptr, i64, ptr, ptr, ptr, ptr, i32, i16, i16, i16, i8, i8, i8, i8, i8, i8, i8, i8, i64, [6 x i8] }>
%struct.curl_mimepart = type { ptr, ptr, i32, i32, ptr, ptr, ptr, ptr, ptr, ptr, ptr, ptr, ptr, ptr, ptr, i64, %struct.mime_state, ptr, %struct.mime_encoder_state, i64 }
%struct.mime_state = type { i32, ptr, i64 }
%struct.mime_encoder_state = type { i64, i64, i64, [256 x i8] }
%struct.ssl_config_data = type { %struct.ssl_primary_config, i64, ptr, ptr, ptr, ptr, ptr, ptr, ptr, i16 }
%struct.ssl_primary_config = type { ptr, ptr, ptr, ptr, ptr, ptr, ptr, ptr, ptr, ptr, ptr, ptr, ptr, ptr, i8, i32, i8, i8 }
%struct.ssl_general_config = type { i32 }
%struct.Progress = type { i64, %struct.pgrs_dir, %struct.pgrs_dir, i64, i64, i32, i32, i64, i64, i64, i64, i64, i64, i64, i64, i64, %struct.curltime, %struct.curltime, %struct.curltime, %struct.curltime, %struct.curltime, [6 x i64], [6 x %struct.curltime], i32, i8 }
%struct.pgrs_dir = type { i64, i64, i64, %struct.pgrs_measure }
%struct.pgrs_measure = type { %struct.curltime, i64 }
%struct.UrlState = type { %struct.curltime, i64, i64, %struct.dynbuf, ptr, i64, ptr, i32, i32, i32, ptr, i32, i64, i32, ptr, %struct.digestdata, %struct.digestdata, %struct.auth, %struct.auth, %struct.Curl_async, ptr, i8, %struct.curltime, %struct.Curl_tree, %struct.Curl_llist, [15 x %struct.time_node], ptr, ptr, i64, i64, i64, i64, [32 x i8], i64, ptr, ptr, ptr, %struct.urlpieces, ptr, ptr, ptr, ptr, ptr, i64, %struct.dynbuf, %struct.Curl_llist, [2 x %struct.curl_header], ptr, i32, ptr, ptr, %struct.store_netrc, %struct.dynamically_allocated_data, i8, i8, i8, i8, i32 }
%struct.digestdata = type { ptr, ptr, ptr, ptr, ptr, ptr, i32, i8, i8 }
%struct.auth = type { i64, i64, i64, i8 }
%struct.Curl_async = type { ptr, ptr, ptr, ptr, i32, i32, i8 }
%struct.Curl_tree = type { ptr, ptr, ptr, ptr, %struct.curltime, ptr }
%struct.time_node = type { %struct.Curl_llist_node, %struct.curltime, i32 }
%struct.urlpieces = type { ptr, ptr, ptr, ptr, ptr, ptr, ptr, ptr }
%struct.dynbuf = type { ptr, i64, i64, i64 }
%struct.Curl_llist = type { ptr, ptr, ptr, i64 }
%struct.curl_header = type { ptr, ptr, i64, i64, i32, ptr }
%struct.store_netrc = type { %struct.dynbuf, ptr, i8 }
%struct.dynamically_allocated_data = type { ptr, ptr, ptr, ptr, ptr, ptr, ptr, ptr, ptr, ptr, ptr, ptr, ptr, ptr }
%struct.PureInfo = type { i32, i32, i32, i64, i64, i64, i64, i64, i64, i64, ptr, ptr, i64, i32, %struct.ip_quadruple, i32, ptr, i32, %struct.curl_certinfo, i32, i8 }
%struct.ip_quadruple = type { [46 x i8], [46 x i8], i32, i32 }
%struct.curl_certinfo = type { i32, ptr }
%struct.curl_tlssessioninfo = type { i32, ptr }
%struct.Curl_cfilter = type { ptr, ptr, ptr, ptr, i32, i8 }
%struct.curl_trc_feat = type { ptr, i32 }
%struct.cf_socket_ctx = type { i32, %struct.Curl_sockaddr_ex, i32, %struct.ip_quadruple, %struct.curltime, %struct.curltime, %struct.curltime, i32, i8 }

@.str.30 = private unnamed_addr constant [23 x i8] c"cf_socket_shutdown(%d)\00", align 1

; Function Attrs: nounwind uwtable
define internal i32 @cf_socket_shutdown(ptr noundef %0, ptr noundef %1, ptr noundef %2) #0 {
  %4 = alloca ptr, align 8
  %5 = alloca ptr, align 8
  %6 = alloca ptr, align 8
  %7 = alloca ptr, align 8
  %8 = alloca [1024 x i8], align 16
  store ptr %0, ptr %4, align 8, !tbaa !118
  store ptr %1, ptr %5, align 8, !tbaa !23
  store ptr %2, ptr %6, align 8, !tbaa !133
  %9 = load ptr, ptr %4, align 8, !tbaa !118
  %10 = getelementptr inbounds nuw %struct.Curl_cfilter, ptr %9, i32 0, i32 5
  %11 = load i8, ptr %10, align 4
  %12 = and i8 %11, 1
  %13 = zext i8 %12 to i32
  %14 = icmp ne i32 %13, 0
  br i1 %14, label %15, label %86

15:                                               ; preds = %3
  call void @llvm.lifetime.start.p0(i64 8, ptr %7) #9
  %16 = load ptr, ptr %4, align 8, !tbaa !118
  %17 = getelementptr inbounds nuw %struct.Curl_cfilter, ptr %16, i32 0, i32 2
  %18 = load ptr, ptr %17, align 8, !tbaa !120
  store ptr %18, ptr %7, align 8, !tbaa !123
  br label %19

19:                                               ; preds = %15
  %20 = load ptr, ptr %5, align 8, !tbaa !23
  %21 = icmp ne ptr %20, null
  br i1 %21, label %22, label %61

22:                                               ; preds = %19
  %23 = load ptr, ptr %5, align 8, !tbaa !23
  %24 = getelementptr inbounds nuw %struct.Curl_easy, ptr %23, i32 0, i32 16
  %25 = getelementptr inbounds nuw %struct.UserDefined, ptr %24, i32 0, i32 119
  %26 = load i64, ptr %25, align 2
  %27 = lshr i64 %26, 31
  %28 = and i64 %27, 1
  %29 = trunc i64 %28 to i32
  %30 = icmp ne i32 %29, 0
  br i1 %30, label %31, label %61

31:                                               ; preds = %22
  %32 = load ptr, ptr %5, align 8, !tbaa !23
  %33 = getelementptr inbounds nuw %struct.Curl_easy, ptr %32, i32 0, i32 21
  %34 = getelementptr inbounds nuw %struct.UrlState, ptr %33, i32 0, i32 50
  %35 = load ptr, ptr %34, align 8, !tbaa !125
  %36 = icmp ne ptr %35, null
  br i1 %36, label %37, label %45

37:                                               ; preds = %31
  %38 = load ptr, ptr %5, align 8, !tbaa !23
  %39 = getelementptr inbounds nuw %struct.Curl_easy, ptr %38, i32 0, i32 21
  %40 = getelementptr inbounds nuw %struct.UrlState, ptr %39, i32 0, i32 50
  %41 = load ptr, ptr %40, align 8, !tbaa !125
  %42 = getelementptr inbounds nuw %struct.curl_trc_feat, ptr %41, i32 0, i32 1
  %43 = load i32, ptr %42, align 8, !tbaa !126
  %44 = icmp sge i32 %43, 1
  br i1 %44, label %45, label %61

45:                                               ; preds = %37, %31
  %46 = load ptr, ptr %4, align 8, !tbaa !118
  %47 = icmp ne ptr %46, null
  br i1 %47, label %48, label %61

48:                                               ; preds = %45
  %49 = load ptr, ptr %4, align 8, !tbaa !118
  %50 = getelementptr inbounds nuw %struct.Curl_cfilter, ptr %49, i32 0, i32 0
  %51 = load ptr, ptr %50, align 8, !tbaa !128
  %52 = getelementptr inbounds nuw %struct.Curl_cftype, ptr %51, i32 0, i32 2
  %53 = load i32, ptr %52, align 4, !tbaa !129
  %54 = icmp sge i32 %53, 1
  br i1 %54, label %55, label %61

55:                                               ; preds = %48
  %56 = load ptr, ptr %5, align 8, !tbaa !23
  %57 = load ptr, ptr %4, align 8, !tbaa !118
  %58 = load ptr, ptr %7, align 8, !tbaa !123
  %59 = getelementptr inbounds nuw %struct.cf_socket_ctx, ptr %58, i32 0, i32 2
  %60 = load i32, ptr %59, align 8, !tbaa !137
  call void (ptr, ptr, ptr, ...) @Curl_trc_cf_infof(ptr noundef %56, ptr noundef %57, ptr noundef @.str.30, i32 noundef %60)
  br label %61

61:                                               ; preds = %55, %48, %45, %37, %22, %19
  br label %62

62:                                               ; preds = %61
  br label %63

63:                                               ; preds = %62
  %64 = load ptr, ptr %7, align 8, !tbaa !123
  %65 = getelementptr inbounds nuw %struct.cf_socket_ctx, ptr %64, i32 0, i32 2
  %66 = load i32, ptr %65, align 8, !tbaa !137
  %67 = icmp ne i32 %66, -1
  br i1 %67, label %68, label %85

68:                                               ; preds = %63
  %69 = load ptr, ptr %7, align 8, !tbaa !123
  %70 = getelementptr inbounds nuw %struct.cf_socket_ctx, ptr %69, i32 0, i32 0
  %71 = load i32, ptr %70, align 8, !tbaa !147
  %72 = icmp eq i32 %71, 3
  br i1 %72, label %73, label %85

73:                                               ; preds = %68
  %74 = load ptr, ptr %7, align 8, !tbaa !123
  %75 = getelementptr inbounds nuw %struct.cf_socket_ctx, ptr %74, i32 0, i32 2
  %76 = load i32, ptr %75, align 8, !tbaa !137
  %77 = call i32 @curlx_nonblock(i32 noundef %76, i32 noundef 1)
  %78 = icmp sge i32 %77, 0
  br i1 %78, label %79, label %85

79:                                               ; preds = %73
  call void @llvm.lifetime.start.p0(i64 1024, ptr %8) #9
  %80 = load ptr, ptr %7, align 8, !tbaa !123
  %81 = getelementptr inbounds nuw %struct.cf_socket_ctx, ptr %80, i32 0, i32 2
  %82 = load i32, ptr %81, align 8, !tbaa !137
  %83 = getelementptr inbounds [1024 x i8], ptr %8, i64 0, i64 0
  %84 = call i64 @recv(i32 noundef %82, ptr noundef %83, i64 noundef 1024, i32 noundef 0)
  call void @llvm.lifetime.end.p0(i64 1024, ptr %8) #9
  br label %85

85:                                               ; preds = %79, %73, %68, %63
  call void @llvm.lifetime.end.p0(i64 8, ptr %7) #9
  br label %86

86:                                               ; preds = %85, %3
  %87 = load ptr, ptr %6, align 8, !tbaa !133
  store i8 1, ptr %87, align 1, !tbaa !131
  ret i32 0
}