; Function Attrs: nounwind uwtable
define internal noundef i32 @cf_socket_shutdown(ptr noundef %0, ptr noundef %1, ptr noundef writeonly captures(none) initializes((0, 1)) %2) #2 {
  %4 = alloca [1024 x i8], align 16
  %5 = getelementptr inbounds nuw i8, ptr %0, i64 36
  %6 = load i8, ptr %5, align 4
  %7 = and i8 %6, 1
  %.not = icmp eq i8 %7, 0
  br i1 %.not, label %42, label %8

8:                                                ; preds = %3
  %9 = getelementptr inbounds nuw i8, ptr %0, i64 16
  %10 = load ptr, ptr %9, align 8, !tbaa !104
  %.not19 = icmp eq ptr %1, null
  br i1 %.not19, label %30, label %11

11:                                               ; preds = %8
  %12 = getelementptr inbounds nuw i8, ptr %1, i64 2658
  %13 = load i64, ptr %12, align 2
  %14 = and i64 %13, 2147483648
  %.not20 = icmp eq i64 %14, 0
  br i1 %.not20, label %30, label %15

15:                                               ; preds = %11
  %16 = getelementptr inbounds nuw i8, ptr %1, i64 4864
  %17 = load ptr, ptr %16, align 8, !tbaa !108
  %.not21 = icmp eq ptr %17, null
  br i1 %.not21, label %22, label %18

18:                                               ; preds = %15
  %19 = getelementptr inbounds nuw i8, ptr %17, i64 8
  %20 = load i32, ptr %19, align 8, !tbaa !109
  %21 = icmp sgt i32 %20, 0
  br i1 %21, label %22, label %30

22:                                               ; preds = %15, %18
  %23 = load ptr, ptr %0, align 8, !tbaa !111
  %24 = getelementptr inbounds nuw i8, ptr %23, i64 12
  %25 = load i32, ptr %24, align 4, !tbaa !112
  %26 = icmp sgt i32 %25, 0
  br i1 %26, label %27, label %30

27:                                               ; preds = %22
  %28 = getelementptr inbounds nuw i8, ptr %10, i64 152
  %29 = load i32, ptr %28, align 8, !tbaa !116
  tail call void (ptr, ptr, ptr, ...) @Curl_trc_cf_infof(ptr noundef nonnull %1, ptr noundef nonnull %0, ptr noundef nonnull @.str.30, i32 noundef %29) #13
  br label %30

30:                                               ; preds = %27, %22, %18, %11, %8
  %31 = getelementptr inbounds nuw i8, ptr %10, i64 152
  %32 = load i32, ptr %31, align 8, !tbaa !116
  %.not22 = icmp eq i32 %32, -1
  br i1 %.not22, label %42, label %33

33:                                               ; preds = %30
  %34 = load i32, ptr %10, align 8, !tbaa !128
  %35 = icmp eq i32 %34, 3
  br i1 %35, label %36, label %42

36:                                               ; preds = %33
  %37 = tail call i32 @curlx_nonblock(i32 noundef %32, i32 noundef 1) #13
  %38 = icmp sgt i32 %37, -1
  br i1 %38, label %39, label %42

39:                                               ; preds = %36
  call void @llvm.lifetime.start.p0(i64 1024, ptr nonnull %4) #13
  %40 = load i32, ptr %31, align 8, !tbaa !116
  %41 = call i64 @recv(i32 noundef %40, ptr noundef nonnull %4, i64 noundef 1024, i32 noundef 0) #13
  call void @llvm.lifetime.end.p0(i64 1024, ptr nonnull %4) #13
  br label %42

42:                                               ; preds = %30, %33, %36, %39, %3
  store i8 1, ptr %2, align 1, !tbaa !114
  ret i32 0
}